target datalayout = "e-m:e-p270:32:32-p271:32:32-p272:64:64-i64:64-i128:128-f80:128-n8:16:32:64-S128"
target triple = "x86_64-pc-linux-gnu"

%struct.Fraig_ManStruct_t_ = type { ptr, ptr, ptr, ptr, ptr, ptr, ptr, ptr, ptr, i32, i32, i32, i32, i32, i32, i32, i32, i32, i32, i32, i32, i64, i32, i32, i32, i32, i32, ptr, ptr, ptr, ptr, ptr, i32, ptr, ptr, ptr, ptr, ptr, ptr, i32, ptr, ptr, ptr, ptr, i32, i32, i32, i32, i32, i32, i32, i32, i32, i32, i32, i32, i32, i32, i32, i32, i32, i32, i32, i64, i64, i64, i64, i64, i64, i64, i64, i64, i64, i64, i64 }
%struct.Fraig_NodeVecStruct_t_ = type { i32, i32, ptr }
%struct.Fraig_NodeStruct_t_ = type { i32, i32, i32, i32, i32, i32, i32, ptr, ptr, ptr, ptr, ptr, ptr, ptr, ptr, i32, i32, ptr, ptr, ptr, ptr, ptr, ptr, ptr }

; Function Attrs: nounwind uwtable
define i32 @Fraig_ManSimulateBitNode(ptr noundef %0, ptr noundef %1, ptr noundef %2) #0 {
  %4 = alloca ptr, align 8
  %5 = alloca ptr, align 8
  %6 = alloca ptr, align 8
  %7 = alloca i32, align 4
  %8 = alloca i32, align 4
  %9 = alloca i32, align 4
  store ptr %0, ptr %4, align 8
  store ptr %1, ptr %5, align 8
  store ptr %2, ptr %6, align 8
  %10 = load ptr, ptr %4, align 8
  call void @Fraig_ManIncrementTravId(ptr noundef %10)
  store i32 0, ptr %9, align 4
  br label %11

11:                                               ; preds = %50, %3
  %12 = load i32, ptr %9, align 4
  %13 = load ptr, ptr %4, align 8
  %14 = getelementptr inbounds %struct.Fraig_ManStruct_t_, ptr %13, i32 0, i32 0
  %15 = load ptr, ptr %14, align 8
  %16 = getelementptr inbounds %struct.Fraig_NodeVecStruct_t_, ptr %15, i32 0, i32 1
  %17 = load i32, ptr %16, align 4
  %18 = icmp slt i32 %12, %17
  br i1 %18, label %19, label %53

19:                                               ; preds = %11
  %20 = load ptr, ptr %4, align 8
  %21 = load ptr, ptr %4, align 8
  %22 = getelementptr inbounds %struct.Fraig_ManStruct_t_, ptr %21, i32 0, i32 0
  %23 = load ptr, ptr %22, align 8
  %24 = getelementptr inbounds %struct.Fraig_NodeVecStruct_t_, ptr %23, i32 0, i32 2
  %25 = load ptr, ptr %24, align 8
  %26 = load i32, ptr %9, align 4
  %27 = sext i32 %26 to i64
  %28 = getelementptr inbounds ptr, ptr %25, i64 %27
  %29 = load ptr, ptr %28, align 8
  call void @Fraig_NodeSetTravIdCurrent(ptr noundef %20, ptr noundef %29)
  %30 = load ptr, ptr %6, align 8
  %31 = load i32, ptr %9, align 4
  %32 = sext i32 %31 to i64
  %33 = getelementptr inbounds i32, ptr %30, i64 %32
  %34 = load i32, ptr %33, align 4
  %35 = load ptr, ptr %4, align 8
  %36 = getelementptr inbounds %struct.Fraig_ManStruct_t_, ptr %35, i32 0, i32 0
  %37 = load ptr, ptr %36, align 8
  %38 = getelementptr inbounds %struct.Fraig_NodeVecStruct_t_, ptr %37, i32 0, i32 2
  %39 = load ptr, ptr %38, align 8
  %40 = load i32, ptr %9, align 4
  %41 = sext i32 %40 to i64
  %42 = getelementptr inbounds ptr, ptr %39, i64 %41
  %43 = load ptr, ptr %42, align 8
  %44 = getelementptr inbounds %struct.Fraig_NodeStruct_t_, ptr %43, i32 0, i32 6
  %45 = load i32, ptr %44, align 8
  %46 = and i32 %34, 1
  %47 = shl i32 %46, 6
  %48 = and i32 %45, -65
  %49 = or i32 %48, %47
  store i32 %49, ptr %44, align 8
  br label %50

50:                                               ; preds = %19
  %51 = load i32, ptr %9, align 4
  %52 = add nsw i32 %51, 1
  store i32 %52, ptr %9, align 4
  br label %11, !llvm.loop !32

53:                                               ; preds = %11
  %54 = load ptr, ptr %5, align 8
  %55 = ptrtoint ptr %54 to i64
  %56 = and i64 %55, 1
  %57 = trunc i64 %56 to i32
  store i32 %57, ptr %7, align 4
  %58 = load ptr, ptr %4, align 8
  %59 = load ptr, ptr %5, align 8
  %60 = ptrtoint ptr %59 to i64
  %61 = and i64 %60, -2
  %62 = inttoptr i64 %61 to ptr
  %63 = call i32 @Fraig_ManSimulateBitNode_rec(ptr noundef %58, ptr noundef %62)
  store i32 %63, ptr %8, align 4
  %64 = load i32, ptr %7, align 4
  %65 = load i32, ptr %8, align 4
  %66 = xor i32 %64, %65
  ret i32 %66
}