; Function Attrs: nounwind uwtable
define range(i32 0, 2) i32 @Fraig_ManSimulateBitNode(ptr noundef %0, ptr noundef %1, ptr noundef readonly captures(none) %2) local_unnamed_addr #0 {
  tail call void @Fraig_ManIncrementTravId(ptr noundef %0) #12
  %4 = load ptr, ptr %0, align 8
  %5 = getelementptr inbounds nuw i8, ptr %4, i64 4
  %6 = load i32, ptr %5, align 4
  %7 = icmp sgt i32 %6, 0
  br i1 %7, label %.lr.ph, label %._crit_edge

.lr.ph:                                           ; preds = %3, %.lr.ph
  %indvars.iv = phi i64 [ %indvars.iv.next, %.lr.ph ], [ 0, %3 ]
  %8 = phi ptr [ %26, %.lr.ph ], [ %4, %3 ]
  %9 = getelementptr inbounds nuw i8, ptr %8, i64 8
  %10 = load ptr, ptr %9, align 8
  %11 = getelementptr inbounds nuw ptr, ptr %10, i64 %indvars.iv
  %12 = load ptr, ptr %11, align 8
  tail call void @Fraig_NodeSetTravIdCurrent(ptr noundef nonnull %0, ptr noundef %12) #12
  %13 = getelementptr inbounds nuw i32, ptr %2, i64 %indvars.iv
  %14 = load i32, ptr %13, align 4
  %15 = load ptr, ptr %0, align 8
  %16 = getelementptr inbounds nuw i8, ptr %15, i64 8
  %17 = load ptr, ptr %16, align 8
  %18 = getelementptr inbounds nuw ptr, ptr %17, i64 %indvars.iv
  %19 = load ptr, ptr %18, align 8
  %20 = getelementptr inbounds nuw i8, ptr %19, i64 24
  %21 = load i32, ptr %20, align 8
  %22 = shl i32 %14, 6
  %23 = and i32 %22, 64
  %24 = and i32 %21, -65
  %25 = or disjoint i32 %24, %23
  store i32 %25, ptr %20, align 8
  %indvars.iv.next = add nuw nsw i64 %indvars.iv, 1
  %26 = load ptr, ptr %0, align 8
  %27 = getelementptr inbounds nuw i8, ptr %26, i64 4
  %28 = load i32, ptr %27, align 4
  %29 = sext i32 %28 to i64
  %30 = icmp slt i64 %indvars.iv.next, %29
  br i1 %30, label %.lr.ph, label %._crit_edge, !llvm.loop !51

._crit_edge:                                      ; preds = %.lr.ph, %3
  %31 = ptrtoint ptr %1 to i64
  %32 = trunc i64 %31 to i32
  %33 = and i32 %32, 1
  %34 = and i64 %31, -2
  %35 = inttoptr i64 %34 to ptr
  %36 = tail call i32 @Fraig_ManSimulateBitNode_rec(ptr noundef nonnull %0, ptr noundef %35)
  %37 = xor i32 %36, %33
  ret i32 %37
}